; Function Attrs: mustprogress nounwind uwtable
define internal fastcc void @"_ZN4llvm15SmallVectorImplIN12_GLOBAL__N_116JumpScopeChecker9GotoScopeEE12emplace_backIJRjN5clang4diag3$_0ES9_NS7_14SourceLocationEEEERS3_DpOT_"(ptr noundef nonnull align 8 dereferenceable(16) %0, ptr nocapture noundef nonnull readonly align 4 dereferenceable(4) %1, ptr nocapture noundef nonnull readonly align 4 dereferenceable(4) %2, ptr nocapture noundef nonnull readonly align 4 dereferenceable(4) %3, ptr nocapture noundef nonnull readonly align 4 dereferenceable(4) %4) unnamed_addr #0 align 2 {
  %6 = tail call noundef i64 @_ZNK4llvm15SmallVectorBaseIjE4sizeEv(ptr noundef nonnull align 8 dereferenceable(16) %0) #12
  %7 = tail call noundef i64 @_ZNK4llvm15SmallVectorBaseIjE8capacityEv(ptr noundef nonnull align 8 dereferenceable(16) %0) #12
  %.not = icmp ult i64 %6, %7
  br i1 %.not, label %16, label %8

8:                                                ; preds = %5
  %.val = load i32, ptr %1, align 4
  %.val10 = load i32, ptr %2, align 4
  %.val11 = load i32, ptr %3, align 4
  %.val12 = load i32, ptr %4, align 4
  %9 = tail call noundef i64 @_ZNK4llvm15SmallVectorBaseIjE4sizeEv(ptr noundef nonnull align 8 dereferenceable(16) %0) #12
  %10 = add i64 %9, 1
  %11 = tail call noundef i64 @_ZNK4llvm15SmallVectorBaseIjE8capacityEv(ptr noundef nonnull align 8 dereferenceable(16) %0) #12
  %.not.i.i.i.i = icmp ugt i64 %10, %11
  br i1 %.not.i.i.i.i, label %12, label %"_ZN4llvm23SmallVectorTemplateBaseIN12_GLOBAL__N_116JumpScopeChecker9GotoScopeELb1EE18growAndEmplaceBackIJRjN5clang4diag3$_0ES9_NS7_14SourceLocationEEEERS3_DpOT_.exit"

12:                                               ; preds = %8
  %13 = getelementptr inbounds i8, ptr %0, i64 16
  tail call void @_ZN4llvm15SmallVectorBaseIjE8grow_podEPvmm(ptr noundef nonnull align 8 dereferenceable(16) %0, ptr noundef nonnull %13, i64 noundef %10, i64 noundef 16) #12
  br label %"_ZN4llvm23SmallVectorTemplateBaseIN12_GLOBAL__N_116JumpScopeChecker9GotoScopeELb1EE18growAndEmplaceBackIJRjN5clang4diag3$_0ES9_NS7_14SourceLocationEEEERS3_DpOT_.exit"

"_ZN4llvm23SmallVectorTemplateBaseIN12_GLOBAL__N_116JumpScopeChecker9GotoScopeELb1EE18growAndEmplaceBackIJRjN5clang4diag3$_0ES9_NS7_14SourceLocationEEEERS3_DpOT_.exit": ; preds = %8, %12
  %.sroa.5.8.insert.ext.i = zext i32 %.val12 to i64
  %.sroa.5.8.insert.shift.i = shl nuw i64 %.sroa.5.8.insert.ext.i, 32
  %.sroa.3.8.insert.ext.i = zext i32 %.val11 to i64
  %.sroa.3.8.insert.insert.i = or disjoint i64 %.sroa.5.8.insert.shift.i, %.sroa.3.8.insert.ext.i
  %.sroa.2.0.insert.ext.i = zext i32 %.val10 to i64
  %.sroa.2.0.insert.shift.i = shl nuw i64 %.sroa.2.0.insert.ext.i, 32
  %.sroa.0.0.insert.ext.i = zext i32 %.val to i64
  %.sroa.0.0.insert.insert.i = or disjoint i64 %.sroa.2.0.insert.shift.i, %.sroa.0.0.insert.ext.i
  %.val.i.i.i = load ptr, ptr %0, align 8
  %14 = tail call noundef i64 @_ZNK4llvm15SmallVectorBaseIjE4sizeEv(ptr noundef nonnull align 8 dereferenceable(16) %0) #12
  %15 = getelementptr inbounds %"struct.(anonymous namespace)::JumpScopeChecker::GotoScope", ptr %.val.i.i.i, i64 %14
  store i64 %.sroa.0.0.insert.insert.i, ptr %15, align 1
  %.sroa.2.0..sroa_idx.i.i = getelementptr inbounds i8, ptr %15, i64 8
  store i64 %.sroa.3.8.insert.insert.i, ptr %.sroa.2.0..sroa_idx.i.i, align 1
  br label %25

16:                                               ; preds = %5
  %.val.i = load ptr, ptr %0, align 8
  %17 = tail call noundef i64 @_ZNK4llvm15SmallVectorBaseIjE4sizeEv(ptr noundef nonnull align 8 dereferenceable(16) %0) #12
  %18 = getelementptr inbounds %"struct.(anonymous namespace)::JumpScopeChecker::GotoScope", ptr %.val.i, i64 %17
  %19 = load i32, ptr %1, align 4
  %20 = load i32, ptr %2, align 4
  %21 = load i32, ptr %3, align 4
  %.sroa.0.0.copyload = load i32, ptr %4, align 4
  store i32 %19, ptr %18, align 4
  %22 = getelementptr inbounds nuw i8, ptr %18, i64 4
  store i32 %20, ptr %22, align 4
  %23 = getelementptr inbounds nuw i8, ptr %18, i64 8
  store i32 %21, ptr %23, align 4
  %24 = getelementptr inbounds nuw i8, ptr %18, i64 12
  store i32 %.sroa.0.0.copyload, ptr %24, align 4
  br label %25

25:                                               ; preds = %16, %"_ZN4llvm23SmallVectorTemplateBaseIN12_GLOBAL__N_116JumpScopeChecker9GotoScopeELb1EE18growAndEmplaceBackIJRjN5clang4diag3$_0ES9_NS7_14SourceLocationEEEERS3_DpOT_.exit"
  %26 = tail call noundef i64 @_ZNK4llvm15SmallVectorBaseIjE4sizeEv(ptr noundef nonnull align 8 dereferenceable(16) %0) #12
  %27 = add i64 %26, 1
  tail call void @_ZN4llvm15SmallVectorBaseIjE8set_sizeEm(ptr noundef nonnull align 8 dereferenceable(16) %0, i64 noundef %27) #12
  %28 = tail call noundef i64 @_ZNK4llvm15SmallVectorBaseIjE4sizeEv(ptr noundef nonnull align 8 dereferenceable(16) %0) #12
  ret void
}